target datalayout = "e-m:e-p270:32:32-p271:32:32-p272:64:64-i64:64-i128:128-f80:128-n8:16:32:64-S128"
target triple = "x86_64-pc-linux-gnu"

%struct.dictType = type { ptr, ptr, ptr, ptr, ptr, ptr, ptr, ptr, ptr, ptr, ptr, i8, ptr, ptr, ptr }
%struct.dict = type { ptr, [2 x ptr], [2 x i64], i64, i16, [2 x i8], i16, [0 x ptr] }

@.str.1 = private unnamed_addr constant [7 x i8] c"dict.c\00", align 1
@.str.2 = private unnamed_addr constant [20 x i8] c"!dictIsRehashing(d)\00", align 1

; Function Attrs: nounwind uwtable
define internal void @_dictReset(ptr noundef %0, i32 noundef %1) #0 {
  %3 = alloca ptr, align 8
  %4 = alloca i32, align 4
  store ptr %0, ptr %3, align 8, !tbaa !18
  store i32 %1, ptr %4, align 4, !tbaa !29
  %5 = load ptr, ptr %3, align 8, !tbaa !18
  %6 = getelementptr inbounds nuw %struct.dict, ptr %5, i32 0, i32 1
  %7 = load i32, ptr %4, align 4, !tbaa !29
  %8 = sext i32 %7 to i64
  %9 = getelementptr inbounds [2 x ptr], ptr %6, i64 0, i64 %8
  store ptr null, ptr %9, align 8, !tbaa !30
  %10 = load ptr, ptr %3, align 8, !tbaa !18
  %11 = getelementptr inbounds nuw %struct.dict, ptr %10, i32 0, i32 5
  %12 = load i32, ptr %4, align 4, !tbaa !29
  %13 = sext i32 %12 to i64
  %14 = getelementptr inbounds [2 x i8], ptr %11, i64 0, i64 %13
  store i8 -1, ptr %14, align 1, !tbaa !25
  %15 = load ptr, ptr %3, align 8, !tbaa !18
  %16 = getelementptr inbounds nuw %struct.dict, ptr %15, i32 0, i32 2
  %17 = load i32, ptr %4, align 4, !tbaa !29
  %18 = sext i32 %17 to i64
  %19 = getelementptr inbounds [2 x i64], ptr %16, i64 0, i64 %18
  store i64 0, ptr %19, align 8, !tbaa !11
  ret void
}

; Function Attrs: nounwind uwtable
define internal signext i8 @_dictNextExp(i64 noundef %0) #0 {
  %2 = alloca i8, align 1
  %3 = alloca i64, align 8
  store i64 %0, ptr %3, align 8, !tbaa !11
  %4 = load i64, ptr %3, align 8, !tbaa !11
  %5 = icmp ule i64 %4, 4
  br i1 %5, label %6, label %7

6:                                                ; preds = %1
  store i8 2, ptr %2, align 1
  br label %19

7:                                                ; preds = %1
  %8 = load i64, ptr %3, align 8, !tbaa !11
  %9 = icmp uge i64 %8, 9223372036854775807
  br i1 %9, label %10, label %11

10:                                               ; preds = %7
  store i8 63, ptr %2, align 1
  br label %19

11:                                               ; preds = %7
  %12 = load i64, ptr %3, align 8, !tbaa !11
  %13 = sub i64 %12, 1
  %14 = call i64 @llvm.ctlz.i64(i64 %13, i1 true)
  %15 = trunc i64 %14 to i32
  %16 = sext i32 %15 to i64
  %17 = sub i64 64, %16
  %18 = trunc i64 %17 to i8
  store i8 %18, ptr %2, align 1
  br label %19

19:                                               ; preds = %11, %10, %6
  %20 = load i8, ptr %2, align 1
  ret i8 %20
}

; Function Attrs: nounwind uwtable
define dso_local i32 @_dictResize(ptr noundef %0, i64 noundef %1, ptr noundef %2) #0 {
  %4 = alloca i32, align 4
  %5 = alloca ptr, align 8
  %6 = alloca i64, align 8
  %7 = alloca ptr, align 8
  %8 = alloca ptr, align 8
  %9 = alloca i64, align 8
  %10 = alloca i8, align 1
  %11 = alloca i64, align 8
  %12 = alloca i32, align 4
  store ptr %0, ptr %5, align 8, !tbaa !18
  store i64 %1, ptr %6, align 8, !tbaa !11
  store ptr %2, ptr %7, align 8, !tbaa !27
  %13 = load ptr, ptr %7, align 8, !tbaa !27
  %14 = icmp ne ptr %13, null
  br i1 %14, label %15, label %17

15:                                               ; preds = %3
  %16 = load ptr, ptr %7, align 8, !tbaa !27
  store i32 0, ptr %16, align 4, !tbaa !29
  br label %17

17:                                               ; preds = %15, %3
  %18 = load ptr, ptr %5, align 8, !tbaa !18
  %19 = getelementptr inbounds nuw %struct.dict, ptr %18, i32 0, i32 3
  %20 = load i64, ptr %19, align 8, !tbaa !11
  %21 = icmp ne i64 %20, -1
  %22 = xor i1 %21, true
  %23 = xor i1 %22, true
  %24 = xor i1 %23, true
  %25 = zext i1 %24 to i32
  %26 = sext i32 %25 to i64
  %27 = call i64 @llvm.expect.i64(i64 %26, i64 1)
  %28 = icmp ne i64 %27, 0
  br i1 %28, label %29, label %30

29:                                               ; preds = %17
  br label %32

30:                                               ; preds = %17
  call void @_serverAssert(ptr noundef @.str.2, ptr noundef @.str.1, i32 noundef 231)
  call void @abort() #17
  unreachable

31:                                               ; No predecessors!
  br label %32

32:                                               ; preds = %31, %29
  call void @llvm.lifetime.start.p0(i64 8, ptr %8) #14
  call void @llvm.lifetime.start.p0(i64 8, ptr %9) #14
  call void @llvm.lifetime.start.p0(i64 1, ptr %10) #14
  %33 = load i64, ptr %6, align 8, !tbaa !11
  %34 = call signext i8 @_dictNextExp(i64 noundef %33)
  store i8 %34, ptr %10, align 1, !tbaa !25
  call void @llvm.lifetime.start.p0(i64 8, ptr %11) #14
  %35 = load i8, ptr %10, align 1, !tbaa !25
  %36 = sext i8 %35 to i32
  %37 = icmp eq i32 %36, -1
  br i1 %37, label %38, label %39

38:                                               ; preds = %32
  br label %44

39:                                               ; preds = %32
  %40 = load i8, ptr %10, align 1, !tbaa !25
  %41 = sext i8 %40 to i32
  %42 = zext i32 %41 to i64
  %43 = shl i64 1, %42
  br label %44

44:                                               ; preds = %39, %38
  %45 = phi i64 [ 0, %38 ], [ %43, %39 ]
  store i64 %45, ptr %11, align 8, !tbaa !11
  %46 = load i64, ptr %11, align 8, !tbaa !11
  %47 = load i64, ptr %6, align 8, !tbaa !11
  %48 = icmp ult i64 %46, %47
  br i1 %48, label %54, label %49

49:                                               ; preds = %44
  %50 = load i64, ptr %11, align 8, !tbaa !11
  %51 = mul i64 %50, 8
  %52 = load i64, ptr %11, align 8, !tbaa !11
  %53 = icmp ult i64 %51, %52
  br i1 %53, label %54, label %55

54:                                               ; preds = %49, %44
  store i32 1, ptr %4, align 4
  store i32 1, ptr %12, align 4
  br label %184

55:                                               ; preds = %49
  %56 = load i8, ptr %10, align 1, !tbaa !25
  %57 = sext i8 %56 to i32
  %58 = load ptr, ptr %5, align 8, !tbaa !18
  %59 = getelementptr inbounds nuw %struct.dict, ptr %58, i32 0, i32 5
  %60 = getelementptr inbounds [2 x i8], ptr %59, i64 0, i64 0
  %61 = load i8, ptr %60, align 2, !tbaa !25
  %62 = sext i8 %61 to i32
  %63 = icmp eq i32 %57, %62
  br i1 %63, label %64, label %65

64:                                               ; preds = %55
  store i32 1, ptr %4, align 4
  store i32 1, ptr %12, align 4
  br label %184

65:                                               ; preds = %55
  %66 = load ptr, ptr %7, align 8, !tbaa !27
  %67 = icmp ne ptr %66, null
  br i1 %67, label %68, label %81

68:                                               ; preds = %65
  %69 = load i64, ptr %11, align 8, !tbaa !11
  %70 = mul i64 %69, 8
  %71 = call noalias ptr @ztrycalloc(i64 noundef %70) #15
  store ptr %71, ptr %8, align 8, !tbaa !30
  %72 = load ptr, ptr %8, align 8, !tbaa !30
  %73 = icmp eq ptr %72, null
  %74 = zext i1 %73 to i32
  %75 = load ptr, ptr %7, align 8, !tbaa !27
  store i32 %74, ptr %75, align 4, !tbaa !29
  %76 = load ptr, ptr %7, align 8, !tbaa !27
  %77 = load i32, ptr %76, align 4, !tbaa !29
  %78 = icmp ne i32 %77, 0
  br i1 %78, label %79, label %80

79:                                               ; preds = %68
  store i32 1, ptr %4, align 4
  store i32 1, ptr %12, align 4
  br label %184

80:                                               ; preds = %68
  br label %85

81:                                               ; preds = %65
  %82 = load i64, ptr %11, align 8, !tbaa !11
  %83 = mul i64 %82, 8
  %84 = call noalias ptr @zcalloc(i64 noundef %83) #15
  store ptr %84, ptr %8, align 8, !tbaa !30
  br label %85

85:                                               ; preds = %81, %80
  store i64 0, ptr %9, align 8, !tbaa !11
  %86 = load i8, ptr %10, align 1, !tbaa !25
  %87 = load ptr, ptr %5, align 8, !tbaa !18
  %88 = getelementptr inbounds nuw %struct.dict, ptr %87, i32 0, i32 5
  %89 = getelementptr inbounds [2 x i8], ptr %88, i64 0, i64 1
  store i8 %86, ptr %89, align 1, !tbaa !25
  %90 = load i64, ptr %9, align 8, !tbaa !11
  %91 = load ptr, ptr %5, align 8, !tbaa !18
  %92 = getelementptr inbounds nuw %struct.dict, ptr %91, i32 0, i32 2
  %93 = getelementptr inbounds [2 x i64], ptr %92, i64 0, i64 1
  store i64 %90, ptr %93, align 8, !tbaa !11
  %94 = load ptr, ptr %8, align 8, !tbaa !30
  %95 = load ptr, ptr %5, align 8, !tbaa !18
  %96 = getelementptr inbounds nuw %struct.dict, ptr %95, i32 0, i32 1
  %97 = getelementptr inbounds [2 x ptr], ptr %96, i64 0, i64 1
  store ptr %94, ptr %97, align 8, !tbaa !30
  %98 = load ptr, ptr %5, align 8, !tbaa !18
  %99 = getelementptr inbounds nuw %struct.dict, ptr %98, i32 0, i32 3
  store i64 0, ptr %99, align 8, !tbaa !11
  %100 = load ptr, ptr %5, align 8, !tbaa !18
  %101 = getelementptr inbounds nuw %struct.dict, ptr %100, i32 0, i32 0
  %102 = load ptr, ptr %101, align 8, !tbaa !13
  %103 = getelementptr inbounds nuw %struct.dictType, ptr %102, i32 0, i32 7
  %104 = load ptr, ptr %103, align 8, !tbaa !32
  %105 = icmp ne ptr %104, null
  br i1 %105, label %106, label %113

106:                                              ; preds = %85
  %107 = load ptr, ptr %5, align 8, !tbaa !18
  %108 = getelementptr inbounds nuw %struct.dict, ptr %107, i32 0, i32 0
  %109 = load ptr, ptr %108, align 8, !tbaa !13
  %110 = getelementptr inbounds nuw %struct.dictType, ptr %109, i32 0, i32 7
  %111 = load ptr, ptr %110, align 8, !tbaa !32
  %112 = load ptr, ptr %5, align 8, !tbaa !18
  call void %111(ptr noundef %112)
  br label %113

113:                                              ; preds = %106, %85
  %114 = load ptr, ptr %5, align 8, !tbaa !18
  %115 = getelementptr inbounds nuw %struct.dict, ptr %114, i32 0, i32 1
  %116 = getelementptr inbounds [2 x ptr], ptr %115, i64 0, i64 0
  %117 = load ptr, ptr %116, align 8, !tbaa !30
  %118 = icmp eq ptr %117, null
  br i1 %118, label %125, label %119

119:                                              ; preds = %113
  %120 = load ptr, ptr %5, align 8, !tbaa !18
  %121 = getelementptr inbounds nuw %struct.dict, ptr %120, i32 0, i32 2
  %122 = getelementptr inbounds [2 x i64], ptr %121, i64 0, i64 0
  %123 = load i64, ptr %122, align 8, !tbaa !11
  %124 = icmp eq i64 %123, 0
  br i1 %124, label %125, label %166

125:                                              ; preds = %119, %113
  %126 = load ptr, ptr %5, align 8, !tbaa !18
  %127 = getelementptr inbounds nuw %struct.dict, ptr %126, i32 0, i32 0
  %128 = load ptr, ptr %127, align 8, !tbaa !13
  %129 = getelementptr inbounds nuw %struct.dictType, ptr %128, i32 0, i32 8
  %130 = load ptr, ptr %129, align 8, !tbaa !33
  %131 = icmp ne ptr %130, null
  br i1 %131, label %132, label %139

132:                                              ; preds = %125
  %133 = load ptr, ptr %5, align 8, !tbaa !18
  %134 = getelementptr inbounds nuw %struct.dict, ptr %133, i32 0, i32 0
  %135 = load ptr, ptr %134, align 8, !tbaa !13
  %136 = getelementptr inbounds nuw %struct.dictType, ptr %135, i32 0, i32 8
  %137 = load ptr, ptr %136, align 8, !tbaa !33
  %138 = load ptr, ptr %5, align 8, !tbaa !18
  call void %137(ptr noundef %138)
  br label %139

139:                                              ; preds = %132, %125
  %140 = load ptr, ptr %5, align 8, !tbaa !18
  %141 = getelementptr inbounds nuw %struct.dict, ptr %140, i32 0, i32 1
  %142 = getelementptr inbounds [2 x ptr], ptr %141, i64 0, i64 0
  %143 = load ptr, ptr %142, align 8, !tbaa !30
  %144 = icmp ne ptr %143, null
  br i1 %144, label %145, label %150

145:                                              ; preds = %139
  %146 = load ptr, ptr %5, align 8, !tbaa !18
  %147 = getelementptr inbounds nuw %struct.dict, ptr %146, i32 0, i32 1
  %148 = getelementptr inbounds [2 x ptr], ptr %147, i64 0, i64 0
  %149 = load ptr, ptr %148, align 8, !tbaa !30
  call void @zfree(ptr noundef %149)
  br label %150

150:                                              ; preds = %145, %139
  %151 = load i8, ptr %10, align 1, !tbaa !25
  %152 = load ptr, ptr %5, align 8, !tbaa !18
  %153 = getelementptr inbounds nuw %struct.dict, ptr %152, i32 0, i32 5
  %154 = getelementptr inbounds [2 x i8], ptr %153, i64 0, i64 0
  store i8 %151, ptr %154, align 2, !tbaa !25
  %155 = load i64, ptr %9, align 8, !tbaa !11
  %156 = load ptr, ptr %5, align 8, !tbaa !18
  %157 = getelementptr inbounds nuw %struct.dict, ptr %156, i32 0, i32 2
  %158 = getelementptr inbounds [2 x i64], ptr %157, i64 0, i64 0
  store i64 %155, ptr %158, align 8, !tbaa !11
  %159 = load ptr, ptr %8, align 8, !tbaa !30
  %160 = load ptr, ptr %5, align 8, !tbaa !18
  %161 = getelementptr inbounds nuw %struct.dict, ptr %160, i32 0, i32 1
  %162 = getelementptr inbounds [2 x ptr], ptr %161, i64 0, i64 0
  store ptr %159, ptr %162, align 8, !tbaa !30
  %163 = load ptr, ptr %5, align 8, !tbaa !18
  call void @_dictReset(ptr noundef %163, i32 noundef 1)
  %164 = load ptr, ptr %5, align 8, !tbaa !18
  %165 = getelementptr inbounds nuw %struct.dict, ptr %164, i32 0, i32 3
  store i64 -1, ptr %165, align 8, !tbaa !11
  store i32 0, ptr %4, align 4
  store i32 1, ptr %12, align 4
  br label %184

166:                                              ; preds = %119
  %167 = load ptr, ptr %5, align 8, !tbaa !18
  %168 = getelementptr inbounds nuw %struct.dict, ptr %167, i32 0, i32 0
  %169 = load ptr, ptr %168, align 8, !tbaa !13
  %170 = getelementptr inbounds nuw %struct.dictType, ptr %169, i32 0, i32 11
  %171 = load i8, ptr %170, align 8
  %172 = lshr i8 %171, 2
  %173 = and i8 %172, 1
  %174 = zext i8 %173 to i32
  %175 = icmp ne i32 %174, 0
  br i1 %175, label %176, label %183

176:                                              ; preds = %166
  br label %177

177:                                              ; preds = %181, %176
  %178 = load ptr, ptr %5, align 8, !tbaa !18
  %179 = call i32 @dictRehash(ptr noundef %178, i32 noundef 1000)
  %180 = icmp ne i32 %179, 0
  br i1 %180, label %181, label %182

181:                                              ; preds = %177
  br label %177, !llvm.loop !34

182:                                              ; preds = %177
  br label %183

183:                                              ; preds = %182, %166
  store i32 0, ptr %4, align 4
  store i32 1, ptr %12, align 4
  br label %184

184:                                              ; preds = %183, %150, %79, %64, %54
  call void @llvm.lifetime.end.p0(i64 8, ptr %11) #14
  call void @llvm.lifetime.end.p0(i64 1, ptr %10) #14
  call void @llvm.lifetime.end.p0(i64 8, ptr %9) #14
  call void @llvm.lifetime.end.p0(i64 8, ptr %8) #14
  %185 = load i32, ptr %4, align 4
  ret i32 %185
}