; Function Attrs: nounwind uwtable
define dso_local range(i32 0, 2) i32 @_dictResize(ptr noundef %0, i64 noundef %1, ptr noundef writeonly captures(address_is_null) %2) local_unnamed_addr #3 {
  %.not = icmp eq ptr %2, null
  br i1 %.not, label %5, label %4

4:                                                ; preds = %3
  store i32 0, ptr %2, align 4, !tbaa !26
  br label %5

5:                                                ; preds = %4, %3
  %6 = getelementptr inbounds nuw i8, ptr %0, i64 40
  %7 = load i64, ptr %6, align 8, !tbaa !14
  %.not53 = icmp eq i64 %7, -1
  br i1 %.not53, label %9, label %8, !prof !25

8:                                                ; preds = %5
  tail call void @_serverAssert(ptr noundef nonnull @.str.2, ptr noundef nonnull @.str.1, i32 noundef 231) #25
  tail call void @abort() #27
  unreachable

9:                                                ; preds = %5
  %10 = icmp ult i64 %1, 5
  br i1 %10, label %_dictNextExp.exit, label %11

11:                                               ; preds = %9
  %12 = icmp ugt i64 %1, 9223372036854775806
  br i1 %12, label %_dictNextExp.exit, label %13

13:                                               ; preds = %11
  %14 = add nsw i64 %1, -1
  %15 = tail call range(i64 0, 65) i64 @llvm.ctlz.i64(i64 %14, i1 true)
  %16 = trunc nuw nsw i64 %15 to i8
  %17 = sub nuw nsw i8 64, %16
  br label %_dictNextExp.exit

_dictNextExp.exit:                                ; preds = %9, %11, %13
  %.0.i = phi i8 [ %17, %13 ], [ 2, %9 ], [ 63, %11 ]
  %18 = zext nneg i8 %.0.i to i64
  %19 = shl nuw i64 1, %18
  %20 = icmp ult i64 %19, %1
  br i1 %20, label %.loopexit, label %21

21:                                               ; preds = %_dictNextExp.exit
  %22 = shl i64 8, %18
  %23 = icmp ult i64 %22, %19
  br i1 %23, label %.loopexit, label %24

24:                                               ; preds = %21
  %25 = getelementptr inbounds nuw i8, ptr %0, i64 50
  %26 = load i8, ptr %25, align 2, !tbaa !13
  %27 = icmp eq i8 %.0.i, %26
  br i1 %27, label %.loopexit, label %28

28:                                               ; preds = %24
  br i1 %.not, label %33, label %29

29:                                               ; preds = %28
  %30 = tail call noalias ptr @ztrycalloc(i64 noundef %22) #26
  %31 = icmp eq ptr %30, null
  %32 = zext i1 %31 to i32
  store i32 %32, ptr %2, align 4, !tbaa !26
  br i1 %31, label %.loopexit, label %35

33:                                               ; preds = %28
  %34 = tail call noalias ptr @zcalloc(i64 noundef %22) #26
  br label %35

35:                                               ; preds = %29, %33
  %.045 = phi ptr [ %30, %29 ], [ %34, %33 ]
  %36 = getelementptr inbounds nuw i8, ptr %0, i64 51
  store i8 %.0.i, ptr %36, align 1, !tbaa !13
  %37 = getelementptr inbounds nuw i8, ptr %0, i64 24
  %38 = getelementptr inbounds nuw i8, ptr %0, i64 32
  store i64 0, ptr %38, align 8, !tbaa !14
  %39 = getelementptr inbounds nuw i8, ptr %0, i64 8
  %40 = getelementptr inbounds nuw i8, ptr %0, i64 16
  store ptr %.045, ptr %40, align 8, !tbaa !11
  store i64 0, ptr %6, align 8, !tbaa !14
  %41 = load ptr, ptr %0, align 8, !tbaa !16
  %42 = getelementptr inbounds nuw i8, ptr %41, i64 56
  %43 = load ptr, ptr %42, align 8, !tbaa !27
  %.not54 = icmp eq ptr %43, null
  br i1 %.not54, label %45, label %44

44:                                               ; preds = %35
  tail call void %43(ptr noundef nonnull %0) #25
  br label %45

45:                                               ; preds = %44, %35
  %46 = load ptr, ptr %39, align 8, !tbaa !11
  %47 = icmp eq ptr %46, null
  br i1 %47, label %._crit_edge, label %48

._crit_edge:                                      ; preds = %45
  %.pre = load ptr, ptr %0, align 8, !tbaa !16
  br label %51

48:                                               ; preds = %45
  %49 = load i64, ptr %37, align 8, !tbaa !14
  %50 = icmp eq i64 %49, 0
  %.pre59 = load ptr, ptr %0, align 8, !tbaa !16
  br i1 %50, label %51, label %60

51:                                               ; preds = %._crit_edge, %48
  %52 = phi ptr [ %.pre, %._crit_edge ], [ %.pre59, %48 ]
  %53 = getelementptr inbounds nuw i8, ptr %52, i64 64
  %54 = load ptr, ptr %53, align 8, !tbaa !28
  %.not57 = icmp eq ptr %54, null
  br i1 %.not57, label %56, label %55

55:                                               ; preds = %51
  tail call void %54(ptr noundef nonnull %0) #25
  %.pre60 = load ptr, ptr %39, align 8, !tbaa !11
  br label %56

56:                                               ; preds = %55, %51
  %57 = phi ptr [ %.pre60, %55 ], [ %46, %51 ]
  %.not58 = icmp eq ptr %57, null
  br i1 %.not58, label %59, label %58

58:                                               ; preds = %56
  tail call void @zfree(ptr noundef nonnull %57) #25
  br label %59

59:                                               ; preds = %58, %56
  store i8 %.0.i, ptr %25, align 2, !tbaa !13
  store i64 0, ptr %37, align 8, !tbaa !14
  store ptr %.045, ptr %39, align 8, !tbaa !11
  store ptr null, ptr %40, align 8, !tbaa !11
  store i8 -1, ptr %36, align 1, !tbaa !13
  store i64 0, ptr %38, align 8, !tbaa !14
  store i64 -1, ptr %6, align 8, !tbaa !14
  br label %.loopexit

60:                                               ; preds = %48
  %61 = getelementptr inbounds nuw i8, ptr %.pre59, i64 88
  %62 = load i8, ptr %61, align 8
  %63 = and i8 %62, 4
  %.not55 = icmp eq i8 %63, 0
  br i1 %.not55, label %.loopexit, label %.preheader

.preheader:                                       ; preds = %60, %.preheader
  %64 = tail call i32 @dictRehash(ptr noundef nonnull %0, i32 noundef 1000)
  %.not56 = icmp eq i32 %64, 0
  br i1 %.not56, label %.loopexit, label %.preheader, !llvm.loop !29

.loopexit:                                        ; preds = %.preheader, %60, %29, %24, %_dictNextExp.exit, %21, %59
  %.0 = phi i32 [ 0, %59 ], [ 1, %21 ], [ 1, %_dictNextExp.exit ], [ 1, %24 ], [ 1, %29 ], [ 0, %60 ], [ 0, %.preheader ]
  ret i32 %.0
}